Certificate:
    Data:
        Version: 1 (0x0)
        Serial Number: 2 (0x2)
        Signature Algorithm: sha256WithRSAEncryption
        Issuer: C=FR, ST=Picardie, L=Bethisy Saint Pierre, O=Neoliant (Test Identity CA), CN=Neoliant (Test Identity CA)/emailAddress=info@neoliant.com
        Validity
            Not Before: Jun 11 15:10:27 2025 GMT
            Not After : Jun  9 15:10:27 2035 GMT
        Subject: CN=DdsTestSubscriber, OU=Dev, O=Neoliant, ST=Some-State, C=FR
        Subject Public Key Info:
            Public Key Algorithm: rsaEncryption
                Public-Key: (2048 bit)
                Modulus:
                    00:8d:e5:30:61:68:40:06:1e:eb:db:c6:dd:47:d4:
                    b2:d0:00:c2:77:56:f7:ca:39:3a:e8:5d:f4:c2:c4:
                    59:1e:13:c1:e1:f8:71:65:af:c8:e5:81:7c:6f:7e:
                    a4:4d:82:4b:1c:b2:3f:a8:a9:45:a4:1d:d3:06:c1:
                    d8:7c:6d:f8:a3:6c:da:ad:83:d4:f8:8d:91:68:39:
                    5f:db:4d:c4:20:ea:49:3d:5c:4b:76:e3:df:e3:53:
                    64:92:4a:83:80:9c:44:0f:e4:f5:03:9f:74:4e:cb:
                    96:78:18:07:41:95:4d:34:84:3f:e2:76:6e:4c:9f:
                    c8:d3:e1:7b:24:8e:a1:43:6f:da:c0:6d:f5:a1:61:
                    8d:71:c8:fc:a7:a8:98:21:93:2f:34:95:2c:61:ec:
                    27:83:11:e0:25:8a:6d:a6:c4:fc:f7:12:44:68:43:
                    da:1e:a9:f8:04:43:37:26:f3:7b:39:c2:19:05:ea:
                    6c:59:89:6a:a3:1b:15:e7:d4:5a:6c:a7:cb:0e:89:
                    2a:4d:2c:98:6c:1a:65:46:f1:a4:e6:6d:8a:49:84:
                    38:62:d3:61:21:3e:e3:c0:45:7b:e2:2a:a3:90:c7:
                    b3:c5:bd:3c:54:2f:40:e8:7a:e4:1b:3f:4e:9d:40:
                    d6:a4:b4:8b:de:f4:98:b0:a8:06:f6:e9:e9:3c:b8:
                    b3:ff
                Exponent: 65537 (0x10001)
    Signature Algorithm: sha256WithRSAEncryption
    Signature Value:
        52:a9:26:dd:f9:02:2a:d7:4d:57:08:50:fa:f5:46:cc:3a:f2:
        8c:49:41:54:2a:57:e8:78:47:ea:97:70:97:c5:c7:5e:bd:39:
        f1:dc:a7:3b:0c:33:0a:b1:3c:77:da:8d:7c:13:af:b5:30:4c:
        e0:5c:ce:05:88:4a:f5:f7:10:0a:04:12:47:45:dd:69:fa:79:
        13:a5:4a:ef:c2:ba:e0:c4:98:d5:fa:99:83:02:02:06:2c:50:
        0c:19:34:dc:0f:ce:15:b1:6b:ac:f5:02:2c:8e:c3:93:b0:f7:
        ca:58:36:03:fa:36:12:0a:eb:d6:e8:51:ac:e1:1b:77:ce:ff:
        a6:42:36:a5:0a:ab:c0:73:a9:23:fd:69:5a:96:9e:19:e3:73:
        d9:e0:d1:96:91:85:22:41:1b:c0:fc:2f:a4:c2:0b:8b:5a:d2:
        5f:11:76:8d:85:8d:82:f6:7f:d4:29:c4:a4:98:9f:65:91:99:
        d3:a5:4c:10:55:1d:4f:d0:5a:37:d5:b2:21:36:67:bd:23:97:
        0b:b2:7e:77:0a:b0:6a:dc:95:ef:37:c3:a2:4a:ed:0f:51:1c:
        d8:b9:5b:4d:2f:1f:c7:cb:29:de:96:af:a6:60:a3:f0:ae:7f:
        ab:19:49:29:e6:86:b8:82:03:a5:01:66:08:cb:02:4c:4f:5f:
        e1:4d:4d:89
-----BEGIN CERTIFICATE-----
MIIDgTCCAmkCAQIwDQYJKoZIhvcNAQELBQAwga0xCzAJBgNVBAYTAkZSMREwDwYD
VQQIDAhQaWNhcmRpZTEdMBsGA1UEBwwUQmV0aGlzeSBTYWludCBQaWVycmUxJDAi
BgNVBAoMG05lb2xpYW50IChUZXN0IElkZW50aXR5IENBKTEkMCIGA1UEAwwbTmVv
bGlhbnQgKFRlc3QgSWRlbnRpdHkgQ0EpMSAwHgYJKoZIhvcNAQkBFhFpbmZvQG5l
b2xpYW50LmNvbTAeFw0yNTA2MTExNTEwMjdaFw0zNTA2MDkxNTEwMjdaMF8xGjAY
BgNVBAMMEURkc1Rlc3RTdWJzY3JpYmVyMQwwCgYDVQQLDANEZXYxETAPBgNVBAoM
CE5lb2xpYW50MRMwEQYDVQQIDApTb21lLVN0YXRlMQswCQYDVQQGEwJGUjCCASIw
DQYJKoZIhvcNAQEBBQADggEPADCCAQoCggEBAI3lMGFoQAYe69vG3UfUstAAwndW
98o5Ouhd9MLEWR4TweH4cWWvyOWBfG9+pE2CSxyyP6ipRaQd0wbB2Hxt+KNs2q2D
1PiNkWg5X9tNxCDqST1cS3bj3+NTZJJKg4CcRA/k9QOfdE7LlngYB0GVTTSEP+J2
bkyfyNPheySOoUNv2sBt9aFhjXHI/KeomCGTLzSVLGHsJ4MR4CWKbabE/PcSRGhD
2h6p+ARDNybzeznCGQXqbFmJaqMbFefUWmynyw6JKk0smGwaZUbxpOZtikmEOGLT
YSE+48BFe+Iqo5DHs8W9PFQvQOh65Bs/Tp1A1qS0i970mLCoBvbp6Ty4s/8CAwEA
ATANBgkqhkiG9w0BAQsFAAOCAQEAUqkm3fkCKtdNVwhQ+vVGzDryjElBVCpX6HhH
6pdwl8XHXr058dynOwwzCrE8d9qNfBOvtTBM4FzOBYhK9fcQCgQSR0Xdafp5E6VK
78K64MSY1fqZgwICBixQDBk03A/OFbFrrPUCLI7Dk7D3ylg2A/o2Egrr1uhRrOEb
d87/pkI2pQqrwHOpI/1pWpaeGeNz2eDRlpGFIkEbwPwvpMILi1rSXxF2jYWNgvZ/
1CnEpJifZZGZ06VMEFUdT9BaN9WyITZnvSOXC7J+dwqwatyV7zfDokrtD1Ec2Llb
TS8fx8sp3pavpmCj8K5/qxlJKeaGuIIDpQFmCMsCTE9f4U1NiQ==
-----END CERTIFICATE-----
